; Function Attrs: null_pointer_is_valid sspstrong uwtable
define internal i32 @dissect_lpp_Error(ptr noundef %0, i32 noundef %1, ptr noundef %2, ptr noundef %3, i32 noundef %4) #0 {
  %6 = getelementptr inbounds nuw i8, ptr %2, i64 16
  %7 = load ptr, ptr %6, align 8
  %8 = getelementptr inbounds nuw i8, ptr %7, i64 8
  %9 = load ptr, ptr %8, align 8
  tail call void @col_append_sep_str(ptr noundef %9, i32 noundef 25, ptr noundef null, ptr noundef nonnull @.str.8454)
  %10 = load i32, ptr @ett_lpp_Error, align 4
  %11 = tail call i32 @dissect_per_choice(ptr noundef %0, i32 noundef %1, ptr noundef %2, ptr noundef %3, i32 noundef %4, i32 noundef %10, ptr noundef nonnull @Error_choice, ptr noundef null)
  ret i32 %11
}